target datalayout = "e-m:e-p270:32:32-p271:32:32-p272:64:64-i64:64-i128:128-f80:128-n8:16:32:64-S128"
target triple = "x86_64-pc-linux-gnu"

; Function Attrs: inlinehint nounwind uwtable
define internal i32 @Abc_LitNot(i32 noundef %0) #2 {
  %2 = alloca i32, align 4
  store i32 %0, ptr %2, align 4, !tbaa !8
  %3 = load i32, ptr %2, align 4, !tbaa !8
  %4 = xor i32 %3, 1
  ret i32 %4
}

; Function Attrs: nounwind uwtable
define void @Wlc_BlastDivider(ptr noundef %0, ptr noundef %1, i32 noundef %2, ptr noundef %3, i32 noundef %4, i32 noundef %5, ptr noundef %6) #0 {
  %8 = alloca ptr, align 8
  %9 = alloca ptr, align 8
  %10 = alloca i32, align 4
  %11 = alloca ptr, align 8
  %12 = alloca i32, align 4
  %13 = alloca i32, align 4
  %14 = alloca ptr, align 8
  %15 = alloca ptr, align 8
  %16 = alloca ptr, align 8
  %17 = alloca ptr, align 8
  %18 = alloca i32, align 4
  %19 = alloca i32, align 4
  %20 = alloca i32, align 4
  %21 = alloca i32, align 4
  %22 = alloca i32, align 4
  %23 = alloca i32, align 4
  store ptr %0, ptr %8, align 8, !tbaa !38
  store ptr %1, ptr %9, align 8, !tbaa !3
  store i32 %2, ptr %10, align 4, !tbaa !8
  store ptr %3, ptr %11, align 8, !tbaa !3
  store i32 %4, ptr %12, align 4, !tbaa !8
  store i32 %5, ptr %13, align 4, !tbaa !8
  store ptr %6, ptr %14, align 8, !tbaa !31
  call void @llvm.lifetime.start.p0(i64 8, ptr %15) #12
  %24 = load ptr, ptr %14, align 8, !tbaa !31
  %25 = load ptr, ptr %9, align 8, !tbaa !3
  %26 = load i32, ptr %10, align 4, !tbaa !8
  %27 = call ptr @Wlc_VecCopy(ptr noundef %24, ptr noundef %25, i32 noundef %26)
  store ptr %27, ptr %15, align 8, !tbaa !3
  call void @llvm.lifetime.start.p0(i64 8, ptr %16) #12
  %28 = load i32, ptr %10, align 4, !tbaa !8
  %29 = sext i32 %28 to i64
  %30 = mul i64 4, %29
  %31 = call noalias ptr @malloc(i64 noundef %30) #14
  store ptr %31, ptr %16, align 8, !tbaa !3
  call void @llvm.lifetime.start.p0(i64 8, ptr %17) #12
  %32 = load i32, ptr %10, align 4, !tbaa !8
  %33 = sext i32 %32 to i64
  %34 = mul i64 4, %33
  %35 = call noalias ptr @malloc(i64 noundef %34) #14
  store ptr %35, ptr %17, align 8, !tbaa !3
  call void @llvm.lifetime.start.p0(i64 4, ptr %18) #12
  call void @llvm.lifetime.start.p0(i64 4, ptr %19) #12
  call void @llvm.lifetime.start.p0(i64 4, ptr %20) #12
  call void @llvm.lifetime.start.p0(i64 4, ptr %21) #12
  call void @llvm.lifetime.start.p0(i64 4, ptr %22) #12
  call void @llvm.lifetime.start.p0(i64 4, ptr %23) #12
  %36 = load i32, ptr %10, align 4, !tbaa !8
  %37 = sub nsw i32 %36, 1
  store i32 %37, ptr %19, align 4, !tbaa !8
  br label %38

38:                                               ; preds = %254, %7
  %39 = load i32, ptr %19, align 4, !tbaa !8
  %40 = icmp sge i32 %39, 0
  br i1 %40, label %41, label %257

41:                                               ; preds = %38
  store i32 0, ptr %20, align 4, !tbaa !8
  %42 = load i32, ptr %10, align 4, !tbaa !8
  %43 = sub nsw i32 %42, 1
  store i32 %43, ptr %18, align 4, !tbaa !8
  br label %44

44:                                               ; preds = %64, %41
  %45 = load i32, ptr %18, align 4, !tbaa !8
  %46 = load i32, ptr %10, align 4, !tbaa !8
  %47 = sub nsw i32 %46, 1
  %48 = load i32, ptr %19, align 4, !tbaa !8
  %49 = sub nsw i32 %47, %48
  %50 = icmp sgt i32 %45, %49
  br i1 %50, label %51, label %67

51:                                               ; preds = %44
  %52 = load ptr, ptr %8, align 8, !tbaa !38
  %53 = load i32, ptr %20, align 4, !tbaa !8
  %54 = load ptr, ptr %11, align 8, !tbaa !3
  %55 = load i32, ptr %18, align 4, !tbaa !8
  %56 = sext i32 %55 to i64
  %57 = getelementptr inbounds i32, ptr %54, i64 %56
  %58 = load i32, ptr %57, align 4, !tbaa !8
  %59 = call i32 @Gia_ManHashOr(ptr noundef %52, i32 noundef %53, i32 noundef %58)
  store i32 %59, ptr %20, align 4, !tbaa !8
  %60 = load i32, ptr %20, align 4, !tbaa !8
  %61 = icmp eq i32 %60, 1
  br i1 %61, label %62, label %63

62:                                               ; preds = %51
  br label %67

63:                                               ; preds = %51
  br label %64

64:                                               ; preds = %63
  %65 = load i32, ptr %18, align 4, !tbaa !8
  %66 = add nsw i32 %65, -1
  store i32 %66, ptr %18, align 4, !tbaa !8
  br label %44, !llvm.loop !104

67:                                               ; preds = %62, %44
  %68 = load i32, ptr %20, align 4, !tbaa !8
  %69 = load ptr, ptr %16, align 8, !tbaa !3
  %70 = load i32, ptr %19, align 4, !tbaa !8
  %71 = sext i32 %70 to i64
  %72 = getelementptr inbounds i32, ptr %69, i64 %71
  store i32 %68, ptr %72, align 4, !tbaa !8
  %73 = load i32, ptr %10, align 4, !tbaa !8
  %74 = sub nsw i32 %73, 1
  store i32 %74, ptr %18, align 4, !tbaa !8
  br label %75

75:                                               ; preds = %129, %67
  %76 = load i32, ptr %18, align 4, !tbaa !8
  %77 = icmp sge i32 %76, 0
  br i1 %77, label %78, label %132

78:                                               ; preds = %75
  %79 = load i32, ptr %20, align 4, !tbaa !8
  %80 = icmp eq i32 %79, 1
  br i1 %80, label %81, label %82

81:                                               ; preds = %78
  br label %132

82:                                               ; preds = %78
  %83 = load i32, ptr %18, align 4, !tbaa !8
  %84 = load i32, ptr %19, align 4, !tbaa !8
  %85 = icmp sge i32 %83, %84
  br i1 %85, label %86, label %94

86:                                               ; preds = %82
  %87 = load ptr, ptr %11, align 8, !tbaa !3
  %88 = load i32, ptr %18, align 4, !tbaa !8
  %89 = load i32, ptr %19, align 4, !tbaa !8
  %90 = sub nsw i32 %88, %89
  %91 = sext i32 %90 to i64
  %92 = getelementptr inbounds i32, ptr %87, i64 %91
  %93 = load i32, ptr %92, align 4, !tbaa !8
  br label %95

94:                                               ; preds = %82
  br label %95

95:                                               ; preds = %94, %86
  %96 = phi i32 [ %93, %86 ], [ 0, %94 ]
  store i32 %96, ptr %22, align 4, !tbaa !8
  %97 = load ptr, ptr %8, align 8, !tbaa !38
  %98 = load i32, ptr %20, align 4, !tbaa !8
  %99 = load ptr, ptr %16, align 8, !tbaa !3
  %100 = load i32, ptr %19, align 4, !tbaa !8
  %101 = sext i32 %100 to i64
  %102 = getelementptr inbounds i32, ptr %99, i64 %101
  %103 = load i32, ptr %102, align 4, !tbaa !8
  %104 = load ptr, ptr %8, align 8, !tbaa !38
  %105 = load i32, ptr %22, align 4, !tbaa !8
  %106 = load ptr, ptr %15, align 8, !tbaa !3
  %107 = load i32, ptr %18, align 4, !tbaa !8
  %108 = sext i32 %107 to i64
  %109 = getelementptr inbounds i32, ptr %106, i64 %108
  %110 = load i32, ptr %109, align 4, !tbaa !8
  %111 = call i32 @Abc_LitNot(i32 noundef %110)
  %112 = call i32 @Gia_ManHashAnd(ptr noundef %104, i32 noundef %105, i32 noundef %111)
  %113 = call i32 @Gia_ManHashMux(ptr noundef %97, i32 noundef %98, i32 noundef %103, i32 noundef %112)
  %114 = load ptr, ptr %16, align 8, !tbaa !3
  %115 = load i32, ptr %19, align 4, !tbaa !8
  %116 = sext i32 %115 to i64
  %117 = getelementptr inbounds i32, ptr %114, i64 %116
  store i32 %113, ptr %117, align 4, !tbaa !8
  %118 = load ptr, ptr %8, align 8, !tbaa !38
  %119 = load i32, ptr %20, align 4, !tbaa !8
  %120 = load ptr, ptr %8, align 8, !tbaa !38
  %121 = load i32, ptr %22, align 4, !tbaa !8
  %122 = load ptr, ptr %15, align 8, !tbaa !3
  %123 = load i32, ptr %18, align 4, !tbaa !8
  %124 = sext i32 %123 to i64
  %125 = getelementptr inbounds i32, ptr %122, i64 %124
  %126 = load i32, ptr %125, align 4, !tbaa !8
  %127 = call i32 @Gia_ManHashXor(ptr noundef %120, i32 noundef %121, i32 noundef %126)
  %128 = call i32 @Gia_ManHashOr(ptr noundef %118, i32 noundef %119, i32 noundef %127)
  store i32 %128, ptr %20, align 4, !tbaa !8
  br label %129

129:                                              ; preds = %95
  %130 = load i32, ptr %18, align 4, !tbaa !8
  %131 = add nsw i32 %130, -1
  store i32 %131, ptr %18, align 4, !tbaa !8
  br label %75, !llvm.loop !105

132:                                              ; preds = %81, %75
  %133 = load ptr, ptr %16, align 8, !tbaa !3
  %134 = load i32, ptr %19, align 4, !tbaa !8
  %135 = sext i32 %134 to i64
  %136 = getelementptr inbounds i32, ptr %133, i64 %135
  %137 = load i32, ptr %136, align 4, !tbaa !8
  %138 = call i32 @Abc_LitNot(i32 noundef %137)
  %139 = load ptr, ptr %16, align 8, !tbaa !3
  %140 = load i32, ptr %19, align 4, !tbaa !8
  %141 = sext i32 %140 to i64
  %142 = getelementptr inbounds i32, ptr %139, i64 %141
  store i32 %138, ptr %142, align 4, !tbaa !8
  %143 = load ptr, ptr %16, align 8, !tbaa !3
  %144 = load i32, ptr %19, align 4, !tbaa !8
  %145 = sext i32 %144 to i64
  %146 = getelementptr inbounds i32, ptr %143, i64 %145
  %147 = load i32, ptr %146, align 4, !tbaa !8
  %148 = icmp eq i32 %147, 0
  br i1 %148, label %149, label %150

149:                                              ; preds = %132
  br label %254

150:                                              ; preds = %132
  store i32 0, ptr %21, align 4, !tbaa !8
  store i32 0, ptr %18, align 4, !tbaa !8
  br label %151

151:                                              ; preds = %207, %150
  %152 = load i32, ptr %18, align 4, !tbaa !8
  %153 = load i32, ptr %10, align 4, !tbaa !8
  %154 = icmp slt i32 %152, %153
  br i1 %154, label %155, label %210

155:                                              ; preds = %151
  %156 = load ptr, ptr %8, align 8, !tbaa !38
  %157 = load i32, ptr %21, align 4, !tbaa !8
  %158 = load ptr, ptr %15, align 8, !tbaa !3
  %159 = load i32, ptr %18, align 4, !tbaa !8
  %160 = sext i32 %159 to i64
  %161 = getelementptr inbounds i32, ptr %158, i64 %160
  %162 = load i32, ptr %161, align 4, !tbaa !8
  %163 = call i32 @Abc_LitNot(i32 noundef %162)
  %164 = load ptr, ptr %15, align 8, !tbaa !3
  %165 = load i32, ptr %18, align 4, !tbaa !8
  %166 = sext i32 %165 to i64
  %167 = getelementptr inbounds i32, ptr %164, i64 %166
  %168 = load i32, ptr %167, align 4, !tbaa !8
  %169 = call i32 @Gia_ManHashMux(ptr noundef %156, i32 noundef %157, i32 noundef %163, i32 noundef %168)
  store i32 %169, ptr %23, align 4, !tbaa !8
  %170 = load i32, ptr %18, align 4, !tbaa !8
  %171 = load i32, ptr %19, align 4, !tbaa !8
  %172 = icmp sge i32 %170, %171
  br i1 %172, label %173, label %181

173:                                              ; preds = %155
  %174 = load ptr, ptr %11, align 8, !tbaa !3
  %175 = load i32, ptr %18, align 4, !tbaa !8
  %176 = load i32, ptr %19, align 4, !tbaa !8
  %177 = sub nsw i32 %175, %176
  %178 = sext i32 %177 to i64
  %179 = getelementptr inbounds i32, ptr %174, i64 %178
  %180 = load i32, ptr %179, align 4, !tbaa !8
  br label %182

181:                                              ; preds = %155
  br label %182

182:                                              ; preds = %181, %173
  %183 = phi i32 [ %180, %173 ], [ 0, %181 ]
  store i32 %183, ptr %22, align 4, !tbaa !8
  %184 = load ptr, ptr %8, align 8, !tbaa !38
  %185 = load ptr, ptr %15, align 8, !tbaa !3
  %186 = load i32, ptr %18, align 4, !tbaa !8
  %187 = sext i32 %186 to i64
  %188 = getelementptr inbounds i32, ptr %185, i64 %187
  %189 = load i32, ptr %188, align 4, !tbaa !8
  %190 = load ptr, ptr %8, align 8, !tbaa !38
  %191 = load i32, ptr %21, align 4, !tbaa !8
  %192 = load i32, ptr %22, align 4, !tbaa !8
  %193 = call i32 @Gia_ManHashAnd(ptr noundef %190, i32 noundef %191, i32 noundef %192)
  %194 = load ptr, ptr %8, align 8, !tbaa !38
  %195 = load i32, ptr %21, align 4, !tbaa !8
  %196 = load i32, ptr %22, align 4, !tbaa !8
  %197 = call i32 @Gia_ManHashOr(ptr noundef %194, i32 noundef %195, i32 noundef %196)
  %198 = call i32 @Gia_ManHashMux(ptr noundef %184, i32 noundef %189, i32 noundef %193, i32 noundef %197)
  store i32 %198, ptr %21, align 4, !tbaa !8
  %199 = load ptr, ptr %8, align 8, !tbaa !38
  %200 = load i32, ptr %23, align 4, !tbaa !8
  %201 = load i32, ptr %22, align 4, !tbaa !8
  %202 = call i32 @Gia_ManHashXor(ptr noundef %199, i32 noundef %200, i32 noundef %201)
  %203 = load ptr, ptr %17, align 8, !tbaa !3
  %204 = load i32, ptr %18, align 4, !tbaa !8
  %205 = sext i32 %204 to i64
  %206 = getelementptr inbounds i32, ptr %203, i64 %205
  store i32 %202, ptr %206, align 4, !tbaa !8
  br label %207

207:                                              ; preds = %182
  %208 = load i32, ptr %18, align 4, !tbaa !8
  %209 = add nsw i32 %208, 1
  store i32 %209, ptr %18, align 4, !tbaa !8
  br label %151, !llvm.loop !106

210:                                              ; preds = %151
  %211 = load ptr, ptr %16, align 8, !tbaa !3
  %212 = load i32, ptr %19, align 4, !tbaa !8
  %213 = sext i32 %212 to i64
  %214 = getelementptr inbounds i32, ptr %211, i64 %213
  %215 = load i32, ptr %214, align 4, !tbaa !8
  %216 = icmp eq i32 %215, 1
  br i1 %216, label %217, label %222

217:                                              ; preds = %210
  %218 = load ptr, ptr %14, align 8, !tbaa !31
  %219 = load ptr, ptr %17, align 8, !tbaa !3
  %220 = load i32, ptr %10, align 4, !tbaa !8
  %221 = call ptr @Wlc_VecCopy(ptr noundef %218, ptr noundef %219, i32 noundef %220)
  br label %253

222:                                              ; preds = %210
  store i32 0, ptr %18, align 4, !tbaa !8
  br label %223

223:                                              ; preds = %249, %222
  %224 = load i32, ptr %18, align 4, !tbaa !8
  %225 = load i32, ptr %10, align 4, !tbaa !8
  %226 = icmp slt i32 %224, %225
  br i1 %226, label %227, label %252

227:                                              ; preds = %223
  %228 = load ptr, ptr %8, align 8, !tbaa !38
  %229 = load ptr, ptr %16, align 8, !tbaa !3
  %230 = load i32, ptr %19, align 4, !tbaa !8
  %231 = sext i32 %230 to i64
  %232 = getelementptr inbounds i32, ptr %229, i64 %231
  %233 = load i32, ptr %232, align 4, !tbaa !8
  %234 = load ptr, ptr %17, align 8, !tbaa !3
  %235 = load i32, ptr %18, align 4, !tbaa !8
  %236 = sext i32 %235 to i64
  %237 = getelementptr inbounds i32, ptr %234, i64 %236
  %238 = load i32, ptr %237, align 4, !tbaa !8
  %239 = load ptr, ptr %15, align 8, !tbaa !3
  %240 = load i32, ptr %18, align 4, !tbaa !8
  %241 = sext i32 %240 to i64
  %242 = getelementptr inbounds i32, ptr %239, i64 %241
  %243 = load i32, ptr %242, align 4, !tbaa !8
  %244 = call i32 @Gia_ManHashMux(ptr noundef %228, i32 noundef %233, i32 noundef %238, i32 noundef %243)
  %245 = load ptr, ptr %15, align 8, !tbaa !3
  %246 = load i32, ptr %18, align 4, !tbaa !8
  %247 = sext i32 %246 to i64
  %248 = getelementptr inbounds i32, ptr %245, i64 %247
  store i32 %244, ptr %248, align 4, !tbaa !8
  br label %249

249:                                              ; preds = %227
  %250 = load i32, ptr %18, align 4, !tbaa !8
  %251 = add nsw i32 %250, 1
  store i32 %251, ptr %18, align 4, !tbaa !8
  br label %223, !llvm.loop !107

252:                                              ; preds = %223
  br label %253

253:                                              ; preds = %252, %217
  br label %254

254:                                              ; preds = %253, %149
  %255 = load i32, ptr %19, align 4, !tbaa !8
  %256 = add nsw i32 %255, -1
  store i32 %256, ptr %19, align 4, !tbaa !8
  br label %38, !llvm.loop !108

257:                                              ; preds = %38
  %258 = load ptr, ptr %17, align 8, !tbaa !3
  %259 = icmp ne ptr %258, null
  br i1 %259, label %260, label %262

260:                                              ; preds = %257
  %261 = load ptr, ptr %17, align 8, !tbaa !3
  call void @free(ptr noundef %261) #12
  store ptr null, ptr %17, align 8, !tbaa !3
  br label %263

262:                                              ; preds = %257
  br label %263

263:                                              ; preds = %262, %260
  %264 = load i32, ptr %13, align 4, !tbaa !8
  %265 = icmp ne i32 %264, 0
  br i1 %265, label %266, label %271

266:                                              ; preds = %263
  %267 = load ptr, ptr %14, align 8, !tbaa !31
  %268 = load ptr, ptr %16, align 8, !tbaa !3
  %269 = load i32, ptr %10, align 4, !tbaa !8
  %270 = call ptr @Wlc_VecCopy(ptr noundef %267, ptr noundef %268, i32 noundef %269)
  br label %271

271:                                              ; preds = %266, %263
  %272 = load ptr, ptr %16, align 8, !tbaa !3
  %273 = icmp ne ptr %272, null
  br i1 %273, label %274, label %276

274:                                              ; preds = %271
  %275 = load ptr, ptr %16, align 8, !tbaa !3
  call void @free(ptr noundef %275) #12
  store ptr null, ptr %16, align 8, !tbaa !3
  br label %277

276:                                              ; preds = %271
  br label %277

277:                                              ; preds = %276, %274
  call void @llvm.lifetime.end.p0(i64 4, ptr %23) #12
  call void @llvm.lifetime.end.p0(i64 4, ptr %22) #12
  call void @llvm.lifetime.end.p0(i64 4, ptr %21) #12
  call void @llvm.lifetime.end.p0(i64 4, ptr %20) #12
  call void @llvm.lifetime.end.p0(i64 4, ptr %19) #12
  call void @llvm.lifetime.end.p0(i64 4, ptr %18) #12
  call void @llvm.lifetime.end.p0(i64 8, ptr %17) #12
  call void @llvm.lifetime.end.p0(i64 8, ptr %16) #12
  call void @llvm.lifetime.end.p0(i64 8, ptr %15) #12
  ret void
}